target datalayout = "e-m:e-p270:32:32-p271:32:32-p272:64:64-i64:64-i128:128-f80:128-n8:16:32:64-S128"
target triple = "x86_64-pc-linux-gnu"

%struct.H5B2_test_ctx_t = type { i8 }
%struct.H5B2_test_rec_t = type { i64, i64 }

@H5B2_init_g = external global i8, align 1
@H5_libterm_g = external global i8, align 1

; Function Attrs: nounwind uwtable
define internal i32 @H5B2__test2_encode(ptr noundef %0, ptr noundef %1, ptr noundef %2) #0 {
  %4 = alloca ptr, align 8
  %5 = alloca ptr, align 8
  %6 = alloca ptr, align 8
  %7 = alloca ptr, align 8
  %8 = alloca i64, align 8
  %9 = alloca i64, align 8
  %10 = alloca ptr, align 8
  %11 = alloca i64, align 8
  %12 = alloca i64, align 8
  %13 = alloca ptr, align 8
  store ptr %0, ptr %4, align 8, !tbaa !23
  store ptr %1, ptr %5, align 8, !tbaa !3
  store ptr %2, ptr %6, align 8, !tbaa !3
  call void @llvm.lifetime.start.p0(i64 8, ptr %7) #6
  %14 = load ptr, ptr %6, align 8, !tbaa !3
  store ptr %14, ptr %7, align 8, !tbaa !13
  %15 = load i8, ptr @H5B2_init_g, align 1, !tbaa !9, !range !11, !noundef !12
  %16 = trunc i8 %15 to i1
  br i1 %16, label %21, label %17

17:                                               ; preds = %3
  %18 = load i8, ptr @H5_libterm_g, align 1, !tbaa !9, !range !11, !noundef !12
  %19 = trunc i8 %18 to i1
  %20 = xor i1 %19, true
  br label %21

21:                                               ; preds = %17, %3
  %22 = phi i1 [ true, %3 ], [ %20, %17 ]
  %23 = xor i1 %22, true
  %24 = xor i1 %23, true
  %25 = zext i1 %24 to i32
  %26 = sext i32 %25 to i64
  %27 = call i64 @llvm.expect.i64(i64 %26, i64 1)
  %28 = icmp ne i64 %27, 0
  br i1 %28, label %29, label %242

29:                                               ; preds = %21
  br label %30

30:                                               ; preds = %29
  %31 = load ptr, ptr %7, align 8, !tbaa !13
  %32 = getelementptr inbounds nuw %struct.H5B2_test_ctx_t, ptr %31, i32 0, i32 0
  %33 = load i8, ptr %32, align 1, !tbaa !17
  %34 = zext i8 %33 to i32
  switch i32 %34, label %132 [
    i32 4, label %35
    i32 8, label %74
    i32 2, label %109
  ]

35:                                               ; preds = %30
  br label %36

36:                                               ; preds = %35
  %37 = load ptr, ptr %5, align 8, !tbaa !3
  %38 = getelementptr inbounds nuw %struct.H5B2_test_rec_t, ptr %37, i32 0, i32 0
  %39 = load i64, ptr %38, align 8, !tbaa !33
  %40 = and i64 %39, 255
  %41 = trunc i64 %40 to i8
  %42 = load ptr, ptr %4, align 8, !tbaa !23
  store i8 %41, ptr %42, align 1, !tbaa !25
  %43 = load ptr, ptr %4, align 8, !tbaa !23
  %44 = getelementptr inbounds nuw i8, ptr %43, i32 1
  store ptr %44, ptr %4, align 8, !tbaa !23
  %45 = load ptr, ptr %5, align 8, !tbaa !3
  %46 = getelementptr inbounds nuw %struct.H5B2_test_rec_t, ptr %45, i32 0, i32 0
  %47 = load i64, ptr %46, align 8, !tbaa !33
  %48 = lshr i64 %47, 8
  %49 = and i64 %48, 255
  %50 = trunc i64 %49 to i8
  %51 = load ptr, ptr %4, align 8, !tbaa !23
  store i8 %50, ptr %51, align 1, !tbaa !25
  %52 = load ptr, ptr %4, align 8, !tbaa !23
  %53 = getelementptr inbounds nuw i8, ptr %52, i32 1
  store ptr %53, ptr %4, align 8, !tbaa !23
  %54 = load ptr, ptr %5, align 8, !tbaa !3
  %55 = getelementptr inbounds nuw %struct.H5B2_test_rec_t, ptr %54, i32 0, i32 0
  %56 = load i64, ptr %55, align 8, !tbaa !33
  %57 = lshr i64 %56, 16
  %58 = and i64 %57, 255
  %59 = trunc i64 %58 to i8
  %60 = load ptr, ptr %4, align 8, !tbaa !23
  store i8 %59, ptr %60, align 1, !tbaa !25
  %61 = load ptr, ptr %4, align 8, !tbaa !23
  %62 = getelementptr inbounds nuw i8, ptr %61, i32 1
  store ptr %62, ptr %4, align 8, !tbaa !23
  %63 = load ptr, ptr %5, align 8, !tbaa !3
  %64 = getelementptr inbounds nuw %struct.H5B2_test_rec_t, ptr %63, i32 0, i32 0
  %65 = load i64, ptr %64, align 8, !tbaa !33
  %66 = lshr i64 %65, 24
  %67 = and i64 %66, 255
  %68 = trunc i64 %67 to i8
  %69 = load ptr, ptr %4, align 8, !tbaa !23
  store i8 %68, ptr %69, align 1, !tbaa !25
  %70 = load ptr, ptr %4, align 8, !tbaa !23
  %71 = getelementptr inbounds nuw i8, ptr %70, i32 1
  store ptr %71, ptr %4, align 8, !tbaa !23
  br label %72

72:                                               ; preds = %36
  br label %73

73:                                               ; preds = %72
  br label %133

74:                                               ; preds = %30
  br label %75

75:                                               ; preds = %74
  call void @llvm.lifetime.start.p0(i64 8, ptr %8) #6
  %76 = load ptr, ptr %5, align 8, !tbaa !3
  %77 = getelementptr inbounds nuw %struct.H5B2_test_rec_t, ptr %76, i32 0, i32 0
  %78 = load i64, ptr %77, align 8, !tbaa !33
  store i64 %78, ptr %8, align 8, !tbaa !15
  call void @llvm.lifetime.start.p0(i64 8, ptr %9) #6
  call void @llvm.lifetime.start.p0(i64 8, ptr %10) #6
  %79 = load ptr, ptr %4, align 8, !tbaa !23
  store ptr %79, ptr %10, align 8, !tbaa !23
  store i64 0, ptr %9, align 8, !tbaa !15
  br label %80

80:                                               ; preds = %89, %75
  %81 = load i64, ptr %9, align 8, !tbaa !15
  %82 = icmp ult i64 %81, 8
  br i1 %82, label %83, label %94

83:                                               ; preds = %80
  %84 = load i64, ptr %8, align 8, !tbaa !15
  %85 = and i64 %84, 255
  %86 = trunc i64 %85 to i8
  %87 = load ptr, ptr %10, align 8, !tbaa !23
  %88 = getelementptr inbounds nuw i8, ptr %87, i32 1
  store ptr %88, ptr %10, align 8, !tbaa !23
  store i8 %86, ptr %87, align 1, !tbaa !25
  br label %89

89:                                               ; preds = %83
  %90 = load i64, ptr %9, align 8, !tbaa !15
  %91 = add i64 %90, 1
  store i64 %91, ptr %9, align 8, !tbaa !15
  %92 = load i64, ptr %8, align 8, !tbaa !15
  %93 = lshr i64 %92, 8
  store i64 %93, ptr %8, align 8, !tbaa !15
  br label %80, !llvm.loop !35

94:                                               ; preds = %80
  br label %95

95:                                               ; preds = %101, %94
  %96 = load i64, ptr %9, align 8, !tbaa !15
  %97 = icmp ult i64 %96, 8
  br i1 %97, label %98, label %104

98:                                               ; preds = %95
  %99 = load ptr, ptr %10, align 8, !tbaa !23
  %100 = getelementptr inbounds nuw i8, ptr %99, i32 1
  store ptr %100, ptr %10, align 8, !tbaa !23
  store i8 0, ptr %99, align 1, !tbaa !25
  br label %101

101:                                              ; preds = %98
  %102 = load i64, ptr %9, align 8, !tbaa !15
  %103 = add i64 %102, 1
  store i64 %103, ptr %9, align 8, !tbaa !15
  br label %95, !llvm.loop !36

104:                                              ; preds = %95
  %105 = load ptr, ptr %4, align 8, !tbaa !23
  %106 = getelementptr inbounds i8, ptr %105, i64 8
  store ptr %106, ptr %4, align 8, !tbaa !23
  call void @llvm.lifetime.end.p0(i64 8, ptr %10) #6
  call void @llvm.lifetime.end.p0(i64 8, ptr %9) #6
  call void @llvm.lifetime.end.p0(i64 8, ptr %8) #6
  br label %107

107:                                              ; preds = %104
  br label %108

108:                                              ; preds = %107
  br label %133

109:                                              ; preds = %30
  br label %110

110:                                              ; preds = %109
  %111 = load ptr, ptr %5, align 8, !tbaa !3
  %112 = getelementptr inbounds nuw %struct.H5B2_test_rec_t, ptr %111, i32 0, i32 0
  %113 = load i64, ptr %112, align 8, !tbaa !33
  %114 = trunc i64 %113 to i32
  %115 = and i32 %114, 255
  %116 = trunc i32 %115 to i8
  %117 = load ptr, ptr %4, align 8, !tbaa !23
  store i8 %116, ptr %117, align 1, !tbaa !25
  %118 = load ptr, ptr %4, align 8, !tbaa !23
  %119 = getelementptr inbounds nuw i8, ptr %118, i32 1
  store ptr %119, ptr %4, align 8, !tbaa !23
  %120 = load ptr, ptr %5, align 8, !tbaa !3
  %121 = getelementptr inbounds nuw %struct.H5B2_test_rec_t, ptr %120, i32 0, i32 0
  %122 = load i64, ptr %121, align 8, !tbaa !33
  %123 = trunc i64 %122 to i32
  %124 = lshr i32 %123, 8
  %125 = and i32 %124, 255
  %126 = trunc i32 %125 to i8
  %127 = load ptr, ptr %4, align 8, !tbaa !23
  store i8 %126, ptr %127, align 1, !tbaa !25
  %128 = load ptr, ptr %4, align 8, !tbaa !23
  %129 = getelementptr inbounds nuw i8, ptr %128, i32 1
  store ptr %129, ptr %4, align 8, !tbaa !23
  br label %130

130:                                              ; preds = %110
  br label %131

131:                                              ; preds = %130
  br label %133

132:                                              ; preds = %30
  br label %133

133:                                              ; preds = %132, %131, %108, %73
  br label %134

134:                                              ; preds = %133
  br label %135

135:                                              ; preds = %134
  br label %136

136:                                              ; preds = %135
  %137 = load ptr, ptr %7, align 8, !tbaa !13
  %138 = getelementptr inbounds nuw %struct.H5B2_test_ctx_t, ptr %137, i32 0, i32 0
  %139 = load i8, ptr %138, align 1, !tbaa !17
  %140 = zext i8 %139 to i32
  switch i32 %140, label %238 [
    i32 4, label %141
    i32 8, label %180
    i32 2, label %215
  ]

141:                                              ; preds = %136
  br label %142

142:                                              ; preds = %141
  %143 = load ptr, ptr %5, align 8, !tbaa !3
  %144 = getelementptr inbounds nuw %struct.H5B2_test_rec_t, ptr %143, i32 0, i32 1
  %145 = load i64, ptr %144, align 8, !tbaa !37
  %146 = and i64 %145, 255
  %147 = trunc i64 %146 to i8
  %148 = load ptr, ptr %4, align 8, !tbaa !23
  store i8 %147, ptr %148, align 1, !tbaa !25
  %149 = load ptr, ptr %4, align 8, !tbaa !23
  %150 = getelementptr inbounds nuw i8, ptr %149, i32 1
  store ptr %150, ptr %4, align 8, !tbaa !23
  %151 = load ptr, ptr %5, align 8, !tbaa !3
  %152 = getelementptr inbounds nuw %struct.H5B2_test_rec_t, ptr %151, i32 0, i32 1
  %153 = load i64, ptr %152, align 8, !tbaa !37
  %154 = lshr i64 %153, 8
  %155 = and i64 %154, 255
  %156 = trunc i64 %155 to i8
  %157 = load ptr, ptr %4, align 8, !tbaa !23
  store i8 %156, ptr %157, align 1, !tbaa !25
  %158 = load ptr, ptr %4, align 8, !tbaa !23
  %159 = getelementptr inbounds nuw i8, ptr %158, i32 1
  store ptr %159, ptr %4, align 8, !tbaa !23
  %160 = load ptr, ptr %5, align 8, !tbaa !3
  %161 = getelementptr inbounds nuw %struct.H5B2_test_rec_t, ptr %160, i32 0, i32 1
  %162 = load i64, ptr %161, align 8, !tbaa !37
  %163 = lshr i64 %162, 16
  %164 = and i64 %163, 255
  %165 = trunc i64 %164 to i8
  %166 = load ptr, ptr %4, align 8, !tbaa !23
  store i8 %165, ptr %166, align 1, !tbaa !25
  %167 = load ptr, ptr %4, align 8, !tbaa !23
  %168 = getelementptr inbounds nuw i8, ptr %167, i32 1
  store ptr %168, ptr %4, align 8, !tbaa !23
  %169 = load ptr, ptr %5, align 8, !tbaa !3
  %170 = getelementptr inbounds nuw %struct.H5B2_test_rec_t, ptr %169, i32 0, i32 1
  %171 = load i64, ptr %170, align 8, !tbaa !37
  %172 = lshr i64 %171, 24
  %173 = and i64 %172, 255
  %174 = trunc i64 %173 to i8
  %175 = load ptr, ptr %4, align 8, !tbaa !23
  store i8 %174, ptr %175, align 1, !tbaa !25
  %176 = load ptr, ptr %4, align 8, !tbaa !23
  %177 = getelementptr inbounds nuw i8, ptr %176, i32 1
  store ptr %177, ptr %4, align 8, !tbaa !23
  br label %178

178:                                              ; preds = %142
  br label %179

179:                                              ; preds = %178
  br label %239

180:                                              ; preds = %136
  br label %181

181:                                              ; preds = %180
  call void @llvm.lifetime.start.p0(i64 8, ptr %11) #6
  %182 = load ptr, ptr %5, align 8, !tbaa !3
  %183 = getelementptr inbounds nuw %struct.H5B2_test_rec_t, ptr %182, i32 0, i32 1
  %184 = load i64, ptr %183, align 8, !tbaa !37
  store i64 %184, ptr %11, align 8, !tbaa !15
  call void @llvm.lifetime.start.p0(i64 8, ptr %12) #6
  call void @llvm.lifetime.start.p0(i64 8, ptr %13) #6
  %185 = load ptr, ptr %4, align 8, !tbaa !23
  store ptr %185, ptr %13, align 8, !tbaa !23
  store i64 0, ptr %12, align 8, !tbaa !15
  br label %186

186:                                              ; preds = %195, %181
  %187 = load i64, ptr %12, align 8, !tbaa !15
  %188 = icmp ult i64 %187, 8
  br i1 %188, label %189, label %200

189:                                              ; preds = %186
  %190 = load i64, ptr %11, align 8, !tbaa !15
  %191 = and i64 %190, 255
  %192 = trunc i64 %191 to i8
  %193 = load ptr, ptr %13, align 8, !tbaa !23
  %194 = getelementptr inbounds nuw i8, ptr %193, i32 1
  store ptr %194, ptr %13, align 8, !tbaa !23
  store i8 %192, ptr %193, align 1, !tbaa !25
  br label %195

195:                                              ; preds = %189
  %196 = load i64, ptr %12, align 8, !tbaa !15
  %197 = add i64 %196, 1
  store i64 %197, ptr %12, align 8, !tbaa !15
  %198 = load i64, ptr %11, align 8, !tbaa !15
  %199 = lshr i64 %198, 8
  store i64 %199, ptr %11, align 8, !tbaa !15
  br label %186, !llvm.loop !38

200:                                              ; preds = %186
  br label %201

201:                                              ; preds = %207, %200
  %202 = load i64, ptr %12, align 8, !tbaa !15
  %203 = icmp ult i64 %202, 8
  br i1 %203, label %204, label %210

204:                                              ; preds = %201
  %205 = load ptr, ptr %13, align 8, !tbaa !23
  %206 = getelementptr inbounds nuw i8, ptr %205, i32 1
  store ptr %206, ptr %13, align 8, !tbaa !23
  store i8 0, ptr %205, align 1, !tbaa !25
  br label %207

207:                                              ; preds = %204
  %208 = load i64, ptr %12, align 8, !tbaa !15
  %209 = add i64 %208, 1
  store i64 %209, ptr %12, align 8, !tbaa !15
  br label %201, !llvm.loop !39

210:                                              ; preds = %201
  %211 = load ptr, ptr %4, align 8, !tbaa !23
  %212 = getelementptr inbounds i8, ptr %211, i64 8
  store ptr %212, ptr %4, align 8, !tbaa !23
  call void @llvm.lifetime.end.p0(i64 8, ptr %13) #6
  call void @llvm.lifetime.end.p0(i64 8, ptr %12) #6
  call void @llvm.lifetime.end.p0(i64 8, ptr %11) #6
  br label %213

213:                                              ; preds = %210
  br label %214

214:                                              ; preds = %213
  br label %239

215:                                              ; preds = %136
  br label %216

216:                                              ; preds = %215
  %217 = load ptr, ptr %5, align 8, !tbaa !3
  %218 = getelementptr inbounds nuw %struct.H5B2_test_rec_t, ptr %217, i32 0, i32 1
  %219 = load i64, ptr %218, align 8, !tbaa !37
  %220 = trunc i64 %219 to i32
  %221 = and i32 %220, 255
  %222 = trunc i32 %221 to i8
  %223 = load ptr, ptr %4, align 8, !tbaa !23
  store i8 %222, ptr %223, align 1, !tbaa !25
  %224 = load ptr, ptr %4, align 8, !tbaa !23
  %225 = getelementptr inbounds nuw i8, ptr %224, i32 1
  store ptr %225, ptr %4, align 8, !tbaa !23
  %226 = load ptr, ptr %5, align 8, !tbaa !3
  %227 = getelementptr inbounds nuw %struct.H5B2_test_rec_t, ptr %226, i32 0, i32 1
  %228 = load i64, ptr %227, align 8, !tbaa !37
  %229 = trunc i64 %228 to i32
  %230 = lshr i32 %229, 8
  %231 = and i32 %230, 255
  %232 = trunc i32 %231 to i8
  %233 = load ptr, ptr %4, align 8, !tbaa !23
  store i8 %232, ptr %233, align 1, !tbaa !25
  %234 = load ptr, ptr %4, align 8, !tbaa !23
  %235 = getelementptr inbounds nuw i8, ptr %234, i32 1
  store ptr %235, ptr %4, align 8, !tbaa !23
  br label %236

236:                                              ; preds = %216
  br label %237

237:                                              ; preds = %236
  br label %239

238:                                              ; preds = %136
  br label %239

239:                                              ; preds = %238, %237, %214, %179
  br label %240

240:                                              ; preds = %239
  br label %241

241:                                              ; preds = %240
  br label %242

242:                                              ; preds = %241, %21
  call void @llvm.lifetime.end.p0(i64 8, ptr %7) #6
  ret i32 0
}