; Function Attrs: nofree norecurse nosync nounwind memory(read, argmem: readwrite, inaccessiblemem: none) uwtable
define internal noundef i32 @H5B2__test2_encode(ptr noundef writeonly captures(none) %0, ptr noundef readonly captures(none) %1, ptr noundef readonly captures(none) %2) #2 {
  %4 = load i8, ptr @H5B2_init_g, align 1, !tbaa !3, !range !7, !noundef !8
  %5 = trunc nuw i8 %4 to i1
  %6 = load i8, ptr @H5_libterm_g, align 1, !range !7
  %7 = trunc nuw i8 %6 to i1
  %8 = xor i1 %7, true
  %9 = select i1 %5, i1 true, i1 %8
  br i1 %9, label %10, label %.loopexit, !prof !9

10:                                               ; preds = %3
  %11 = load i8, ptr %2, align 1, !tbaa !12
  switch i8 %11, label %38 [
    i8 4, label %12
    i8 8, label %23
    i8 2, label %30
  ]

12:                                               ; preds = %10
  %13 = load i64, ptr %1, align 8, !tbaa !21
  %14 = trunc i64 %13 to i8
  store i8 %14, ptr %0, align 1, !tbaa !16
  %15 = getelementptr inbounds nuw i8, ptr %0, i64 1
  %16 = load i64, ptr %1, align 8, !tbaa !21
  %17 = lshr i64 %16, 8
  %18 = trunc i64 %17 to i8
  store i8 %18, ptr %15, align 1, !tbaa !16
  %19 = getelementptr inbounds nuw i8, ptr %0, i64 2
  %20 = load i64, ptr %1, align 8, !tbaa !21
  %21 = lshr i64 %20, 16
  %22 = trunc i64 %21 to i8
  store i8 %22, ptr %19, align 1, !tbaa !16
  br label %thread-pre-split.sink.split

23:                                               ; preds = %10
  %24 = load i64, ptr %1, align 8, !tbaa !21
  br label %25

25:                                               ; preds = %23, %25
  %.06371 = phi ptr [ %0, %23 ], [ %27, %25 ]
  %.06570 = phi i64 [ 0, %23 ], [ %28, %25 ]
  %.06769 = phi i64 [ %24, %23 ], [ %29, %25 ]
  %26 = trunc i64 %.06769 to i8
  %27 = getelementptr inbounds nuw i8, ptr %.06371, i64 1
  store i8 %26, ptr %.06371, align 1, !tbaa !16
  %28 = add nuw nsw i64 %.06570, 1
  %29 = lshr i64 %.06769, 8
  %exitcond.not = icmp eq i64 %28, 8
  br i1 %exitcond.not, label %thread-pre-split, label %25, !llvm.loop !23

30:                                               ; preds = %10
  %31 = load i64, ptr %1, align 8, !tbaa !21
  %32 = trunc i64 %31 to i8
  store i8 %32, ptr %0, align 1, !tbaa !16
  br label %thread-pre-split.sink.split

thread-pre-split.sink.split:                      ; preds = %12, %30
  %.sink81 = phi i64 [ 1, %30 ], [ 3, %12 ]
  %.sink80 = phi i64 [ 8, %30 ], [ 24, %12 ]
  %.sink.ph = phi i64 [ 2, %30 ], [ 4, %12 ]
  %33 = getelementptr inbounds nuw i8, ptr %0, i64 %.sink81
  %34 = load i64, ptr %1, align 8, !tbaa !21
  %35 = lshr i64 %34, %.sink80
  %36 = trunc i64 %35 to i8
  store i8 %36, ptr %33, align 1, !tbaa !16
  br label %thread-pre-split

thread-pre-split:                                 ; preds = %25, %thread-pre-split.sink.split
  %.sink = phi i64 [ %.sink.ph, %thread-pre-split.sink.split ], [ 8, %25 ]
  %37 = getelementptr inbounds nuw i8, ptr %0, i64 %.sink
  %.pr = load i8, ptr %2, align 1, !tbaa !12
  br label %38

38:                                               ; preds = %thread-pre-split, %10
  %39 = phi i8 [ %.pr, %thread-pre-split ], [ %11, %10 ]
  %.068 = phi ptr [ %37, %thread-pre-split ], [ %0, %10 ]
  switch i8 %39, label %.loopexit [
    i8 4, label %40
    i8 8, label %56
    i8 2, label %64
  ]

40:                                               ; preds = %38
  %41 = getelementptr inbounds nuw i8, ptr %1, i64 8
  %42 = load i64, ptr %41, align 8, !tbaa !24
  %43 = trunc i64 %42 to i8
  store i8 %43, ptr %.068, align 1, !tbaa !16
  %44 = getelementptr inbounds nuw i8, ptr %.068, i64 1
  %45 = load i64, ptr %41, align 8, !tbaa !24
  %46 = lshr i64 %45, 8
  %47 = trunc i64 %46 to i8
  store i8 %47, ptr %44, align 1, !tbaa !16
  %48 = getelementptr inbounds nuw i8, ptr %.068, i64 2
  %49 = load i64, ptr %41, align 8, !tbaa !24
  %50 = lshr i64 %49, 16
  %51 = trunc i64 %50 to i8
  store i8 %51, ptr %48, align 1, !tbaa !16
  %52 = getelementptr inbounds nuw i8, ptr %.068, i64 3
  %53 = load i64, ptr %41, align 8, !tbaa !24
  %54 = lshr i64 %53, 24
  %55 = trunc i64 %54 to i8
  store i8 %55, ptr %52, align 1, !tbaa !16
  br label %.loopexit

56:                                               ; preds = %38
  %57 = getelementptr inbounds nuw i8, ptr %1, i64 8
  %58 = load i64, ptr %57, align 8, !tbaa !24
  br label %59

59:                                               ; preds = %56, %59
  %.074 = phi ptr [ %.068, %56 ], [ %61, %59 ]
  %.06073 = phi i64 [ 0, %56 ], [ %62, %59 ]
  %.06272 = phi i64 [ %58, %56 ], [ %63, %59 ]
  %60 = trunc i64 %.06272 to i8
  %61 = getelementptr inbounds nuw i8, ptr %.074, i64 1
  store i8 %60, ptr %.074, align 1, !tbaa !16
  %62 = add nuw nsw i64 %.06073, 1
  %63 = lshr i64 %.06272, 8
  %exitcond75.not = icmp eq i64 %62, 8
  br i1 %exitcond75.not, label %.loopexit, label %59, !llvm.loop !25

64:                                               ; preds = %38
  %65 = getelementptr inbounds nuw i8, ptr %1, i64 8
  %66 = load i64, ptr %65, align 8, !tbaa !24
  %67 = trunc i64 %66 to i8
  store i8 %67, ptr %.068, align 1, !tbaa !16
  %68 = getelementptr inbounds nuw i8, ptr %.068, i64 1
  %69 = load i64, ptr %65, align 8, !tbaa !24
  %70 = lshr i64 %69, 8
  %71 = trunc i64 %70 to i8
  store i8 %71, ptr %68, align 1, !tbaa !16
  br label %.loopexit

.loopexit:                                        ; preds = %59, %40, %64, %38, %3
  ret i32 0
}